; Function Attrs: nounwind uwtable
define ptr @l_Lean_Compiler_LCNF_Simp_CtorInfo_getNumFields___boxed(ptr noundef %0) local_unnamed_addr #1 {
  %2 = ptrtoint ptr %0 to i64
  %3 = and i64 %2, 1
  %.not.i.i = icmp eq i64 %3, 0
  br i1 %.not.i.i, label %7, label %4

4:                                                ; preds = %1
  %5 = lshr i64 %2, 1
  %6 = trunc i64 %5 to i32
  br label %lean_obj_tag.exit.i

7:                                                ; preds = %1
  %8 = getelementptr i8, ptr %0, i64 4
  %.val.i.i = load i32, ptr %8, align 4
  %9 = lshr i32 %.val.i.i, 24
  br label %lean_obj_tag.exit.i

lean_obj_tag.exit.i:                              ; preds = %7, %4
  %.0.i11.i = phi i32 [ %6, %4 ], [ %9, %7 ]
  %10 = icmp eq i32 %.0.i11.i, 0
  %11 = getelementptr inbounds nuw i8, ptr %0, i64 8
  %12 = load ptr, ptr %11, align 8, !tbaa !9
  br i1 %10, label %13, label %24

13:                                               ; preds = %lean_obj_tag.exit.i
  %14 = getelementptr inbounds nuw i8, ptr %12, i64 40
  %15 = load ptr, ptr %14, align 8, !tbaa !9
  %16 = ptrtoint ptr %15 to i64
  %17 = and i64 %16, 1
  %.not14.i = icmp eq i64 %17, 0
  br i1 %.not14.i, label %18, label %l_Lean_Compiler_LCNF_Simp_CtorInfo_getNumFields.exit

18:                                               ; preds = %13
  %.val.i12.i = load i32, ptr %15, align 4, !tbaa !4
  %19 = icmp sgt i32 %.val.i12.i, 0
  br i1 %19, label %20, label %22, !prof !11

20:                                               ; preds = %18
  %21 = add nuw i32 %.val.i12.i, 1
  store i32 %21, ptr %15, align 4, !tbaa !4
  br label %l_Lean_Compiler_LCNF_Simp_CtorInfo_getNumFields.exit

22:                                               ; preds = %18
  %.not.i13.i = icmp eq i32 %.val.i12.i, 0
  br i1 %.not.i13.i, label %l_Lean_Compiler_LCNF_Simp_CtorInfo_getNumFields.exit, label %23

23:                                               ; preds = %22
  tail call void @lean_inc_ref_cold(ptr noundef nonnull %15) #4
  br label %l_Lean_Compiler_LCNF_Simp_CtorInfo_getNumFields.exit

24:                                               ; preds = %lean_obj_tag.exit.i
  %25 = ptrtoint ptr %12 to i64
  %26 = and i64 %25, 1
  %.not.i3 = icmp eq i64 %26, 0
  br i1 %.not.i3, label %.critedge.i.i, label %27, !prof !12

27:                                               ; preds = %24
  %28 = icmp eq ptr %12, inttoptr (i64 1 to ptr)
  br label %lean_nat_eq.exit.i

.critedge.i.i:                                    ; preds = %24
  %29 = tail call zeroext i1 @lean_nat_big_eq(ptr noundef %12, ptr noundef nonnull inttoptr (i64 1 to ptr)) #4
  br label %lean_nat_eq.exit.i

lean_nat_eq.exit.i:                               ; preds = %.critedge.i.i, %27
  %.0.i.i = phi i1 [ %28, %27 ], [ %29, %.critedge.i.i ]
  %spec.select.i = select i1 %.0.i.i, ptr inttoptr (i64 1 to ptr), ptr inttoptr (i64 3 to ptr)
  br label %l_Lean_Compiler_LCNF_Simp_CtorInfo_getNumFields.exit

l_Lean_Compiler_LCNF_Simp_CtorInfo_getNumFields.exit: ; preds = %13, %20, %22, %23, %lean_nat_eq.exit.i
  %.0.i = phi ptr [ %15, %23 ], [ %15, %22 ], [ %15, %20 ], [ %15, %13 ], [ %spec.select.i, %lean_nat_eq.exit.i ]
  br i1 %.not.i.i, label %30, label %lean_dec.exit

30:                                               ; preds = %l_Lean_Compiler_LCNF_Simp_CtorInfo_getNumFields.exit
  %31 = load i32, ptr %0, align 4, !tbaa !4
  %32 = icmp sgt i32 %31, 1
  br i1 %32, label %33, label %35, !prof !11

33:                                               ; preds = %30
  %34 = add nsw i32 %31, -1
  store i32 %34, ptr %0, align 4, !tbaa !4
  br label %lean_dec.exit

35:                                               ; preds = %30
  %.not.i = icmp eq i32 %31, 0
  br i1 %.not.i, label %lean_dec.exit, label %36

36:                                               ; preds = %35
  tail call void @lean_dec_ref_cold(ptr noundef nonnull %0) #4
  br label %lean_dec.exit

lean_dec.exit:                                    ; preds = %36, %35, %33, %l_Lean_Compiler_LCNF_Simp_CtorInfo_getNumFields.exit
  ret ptr %.0.i
}